; Function Attrs: mustprogress nofree norecurse nosync nounwind willreturn memory(write, argmem: readwrite, inaccessiblemem: none) uwtable
define void @_ZN3net14QuicDataWriter12WritePaddingEv(ptr noundef nonnull align 8 captures(none) dereferenceable(24) %0) local_unnamed_addr #3 align 2 personality ptr @__gxx_personality_v0 {
  %2 = getelementptr inbounds nuw i8, ptr %0, i64 16
  %3 = load i64, ptr %2, align 8, !tbaa !11
  %4 = getelementptr inbounds nuw i8, ptr %0, i64 8
  %5 = load i64, ptr %4, align 8, !tbaa !10
  %6 = icmp ugt i64 %3, %5
  br i1 %6, label %12, label %7

7:                                                ; preds = %1
  %8 = load ptr, ptr %0, align 8, !tbaa !3
  %9 = getelementptr inbounds nuw i8, ptr %8, i64 %3
  %10 = sub nuw i64 %5, %3
  tail call void @llvm.memset.p0.i64(ptr align 1 %9, i8 0, i64 %10, i1 false)
  %11 = load i64, ptr %4, align 8, !tbaa !10
  store i64 %11, ptr %2, align 8, !tbaa !11
  br label %12

12:                                               ; preds = %1, %7
  ret void
}